; Function Attrs: mustprogress uwtable
define noundef ptr @_ZN7rocksdb9EncodeKeyEPNSt7__cxx1112basic_stringIcSt11char_traitsIcESaIcEEERKNS_5SliceE(ptr noundef initializes((8, 16)) %0, ptr noundef nonnull readonly align 8 captures(none) dereferenceable(16) %1) local_unnamed_addr #4 personality ptr @__gxx_personality_v0 {
  %3 = alloca [5 x i8], align 1
  %4 = getelementptr inbounds nuw i8, ptr %0, i64 8
  store i64 0, ptr %4, align 8, !tbaa !31
  %5 = load ptr, ptr %0, align 8, !tbaa !28
  store i8 0, ptr %5, align 1, !tbaa !30
  %6 = getelementptr inbounds nuw i8, ptr %1, i64 8
  %7 = load i64, ptr %6, align 8, !tbaa !11
  %8 = trunc i64 %7 to i32
  call void @llvm.lifetime.start.p0(i64 5, ptr nonnull %3) #35
  %9 = call noundef ptr @_ZN7rocksdb14EncodeVarint32EPcj(ptr noundef nonnull %3, i32 noundef %8)
  %10 = ptrtoint ptr %9 to i64
  %11 = ptrtoint ptr %3 to i64
  %12 = sub i64 %10, %11
  %13 = load i64, ptr %4, align 8, !tbaa !31
  %14 = sub i64 4611686018427387903, %13
  %15 = icmp ult i64 %14, %12
  br i1 %15, label %16, label %_ZN7rocksdb11PutVarint32EPNSt7__cxx1112basic_stringIcSt11char_traitsIcESaIcEEEj.exit

16:                                               ; preds = %2
  call void @_ZSt20__throw_length_errorPKc(ptr noundef nonnull @.str.74) #37
  unreachable

_ZN7rocksdb11PutVarint32EPNSt7__cxx1112basic_stringIcSt11char_traitsIcESaIcEEEj.exit: ; preds = %2
  %17 = call noundef nonnull align 8 dereferenceable(32) ptr @_ZNSt7__cxx1112basic_stringIcSt11char_traitsIcESaIcEE9_M_appendEPKcm(ptr noundef nonnull align 8 dereferenceable(32) %0, ptr noundef nonnull %3, i64 noundef %12)
  call void @llvm.lifetime.end.p0(i64 5, ptr nonnull %3) #35
  %18 = load i64, ptr %6, align 8, !tbaa !11
  %19 = load i64, ptr %4, align 8, !tbaa !31
  %20 = sub i64 4611686018427387903, %19
  %21 = icmp ult i64 %20, %18
  br i1 %21, label %22, label %_ZNSt7__cxx1112basic_stringIcSt11char_traitsIcESaIcEE6appendEPKcm.exit

22:                                               ; preds = %_ZN7rocksdb11PutVarint32EPNSt7__cxx1112basic_stringIcSt11char_traitsIcESaIcEEEj.exit
  call void @_ZSt20__throw_length_errorPKc(ptr noundef nonnull @.str.74) #37
  unreachable

_ZNSt7__cxx1112basic_stringIcSt11char_traitsIcESaIcEE6appendEPKcm.exit: ; preds = %_ZN7rocksdb11PutVarint32EPNSt7__cxx1112basic_stringIcSt11char_traitsIcESaIcEEEj.exit
  %23 = load ptr, ptr %1, align 8, !tbaa !4
  %24 = call noundef nonnull align 8 dereferenceable(32) ptr @_ZNSt7__cxx1112basic_stringIcSt11char_traitsIcESaIcEE9_M_appendEPKcm(ptr noundef nonnull align 8 dereferenceable(32) %0, ptr noundef %23, i64 noundef %18)
  %25 = load ptr, ptr %0, align 8, !tbaa !28
  ret ptr %25
}